(dp0
S'METTS MARK'
p1
(dp2
S'salary'
p3
F12.809811943409667
sS'to_ratio'
p4
F0.04708798017348203
sS'total_payments'
p5
F13.875502509098578
sS'bonus'
p6
F13.304686600863562
sS'total_stock_value'
p7
F13.279474812723286
sS'expenses'
p8
F11.454236468621549
sS'exercised_stock_options'
p9
F13.870898880445509
sS'other'
p10
F7.462214939768189
sS'from_ratio'
p11
F0.034482758620689655
sS'poi'
p12
I00
sS'shared_receipt_with_poi'
p13
F6.555356891810665
sS'restricted_stock'
p14
F13.279474812723286
ssS'BAXTER JOHN C'
p15
(dp16
g3
F12.495389630783386
sg4
F0.03796297849889601
sg5
F15.544391283417474
sg6
F13.997832948091217
sg7
F16.1785564005249
sg8
F9.32375833901174
sg9
F15.714710129011152
sg10
F14.793950959942054
sg11
F0.18405548201274122
sg12
I00
sg13
F6.2864751982090095
sg14
F15.187380130257585
ssS'ELLIOTT STEVEN'
p17
(dp18
g3
F12.049079596663264
sg4
F0.03796297849889601
sg5
F12.26304826488645
sg6
F12.765691290604371
sg7
F15.714439306051284
sg8
F11.271528835188708
sg9
F15.402773411109608
sg10
F9.469777278987662
sg11
F0.18405548201274122
sg12
I00
sg13
F6.2864751982090095
sg14
F14.396827450059758
ssS'CORDES WILLIAM R'
p19
(dp20
g3
F12.352742588236998
sg4
F0.013089005235602094
sg5
F13.500163702516804
sg6
F13.558945615643756
sg7
F13.85298551740667
sg8
F10.380339296476752
sg9
F13.387571287185015
sg10
F9.958508406881437
sg11
F0.0
sg12
I00
sg13
F4.07753744390572
sg14
F12.864462736132113
ssS'HANNON KEVIN P'
p21
(dp22
g3
F12.402025867555075
sg4
F0.03062200956937799
sg5
F12.573084479261906
sg6
F14.220976332738882
sg7
F15.670411635601472
sg8
F10.435291582687311
sg9
F15.527144343854186
sg10
F9.337061124755339
sg11
F0.65625
sg12
I01
sg13
F6.943122422819428
sg14
F13.656591025211885
ssS'MORDAUNT KRISTINA M'
p23
(dp24
g3
F12.495355935348927
sg4
F0.03796297849889601
sg5
F13.351127901410477
sg6
F12.691583538230217
sg7
F12.247747076623115
sg8
F10.463646050320772
sg9
F13.870898880445509
sg10
F7.252762418053187
sg11
F0.18405548201274122
sg12
I00
sg13
F6.2864751982090095
sg14
F12.247747076623115
ssS'MEYER ROCKFORD G'
p25
(dp26
g3
F12.352742588236998
sg4
F0.0
sg5
F14.429737900196873
sg6
F13.558945615643756
sg7
F13.770381384184086
sg8
F10.380339296476752
sg9
F13.109257874225849
sg10
F9.958508406881437
sg11
F0.0
sg12
I00
sg13
F3.1354942159291497
sg14
F13.044153156367768
ssS'MCMAHON JEFFREY'
p27
(dp28
g3
F12.822471062421535
sg4
F0.024628450106157114
sg5
F15.226441920372158
sg6
F14.77102238760702
sg7
F14.324047163926792
sg8
F11.828531508910057
sg9
F13.91450032341884
sg10
F12.602678627205014
sg11
F0.5416666666666666
sg12
I00
sg13
F7.70930833338587
sg14
F13.233550485456606
ssS'HORTON STANLEY C'
p29
(dp30
g3
F12.352742588236998
sg4
F0.01872340425531915
sg5
F14.9571379545205
sg6
F13.558945615643756
sg7
F15.797428709996709
sg8
F10.380339296476752
sg9
F15.466199812735663
sg10
F9.958508406881437
sg11
F0.013979496738117428
sg12
I00
sg13
F6.980075940561763
sg14
F14.531436325413559
ssS'PIPER GREGORY F'
p31
(dp32
g3
F12.191425903783335
sg4
F0.049273021001615507
sg5
F14.368032673766082
sg6
F12.899222326086996
sg7
F13.688007813609389
sg8
F10.670303323021274
sg9
F13.688007813609389
sg10
F6.658011045870748
sg11
F0.21621621621621623
sg12
I00
sg13
F6.610696044717759
sg14
F12.922826483390773
ssS'HUMPHREY GENE E'
p33
(dp34
g3
F11.780851159056331
sg4
F0.078125
sg5
F14.946985247466687
sg6
F13.558945615643756
sg7
F14.64089973773822
sg8
F8.516192691082654
sg9
F14.64089973773822
sg10
F9.958508406881437
sg11
F1.0
sg12
I00
sg13
F4.787491742782046
sg14
F13.214425573300883
ssS'UMANOFF ADAM S'
p35
(dp36
g3
F12.572762274686932
sg4
F0.10810810810810811
sg5
F13.938136956689839
sg6
F13.5782059606656
sg7
F14.01101653337591
sg8
F10.880365258459227
sg9
F13.870898880445509
sg10
F9.958508406881437
sg11
F0.0
sg12
I00
sg13
F3.7376696182833684
sg14
F13.214425573300883
ssS'BLACHMAN JEREMY M'
p37
(dp38
g3
F12.42338724144394
sg4
F0.010101010101010102
sg5
F14.516048360472444
sg6
F13.652992804936396
sg7
F13.768790998612333
sg8
F11.34105708287931
sg9
F13.54804148611037
sg10
F5.60947179518496
sg11
F0.14285714285714285
sg12
I00
sg13
F7.752335163302293
sg14
F12.149724491576299
ssS'SUNDE MARTIN'
p39
(dp40
g3
F12.458724512374602
sg4
F0.013978088401964487
sg5
F14.250573302511382
sg6
F13.458837042595952
sg7
F13.457292996230867
sg8
F10.380339296476752
sg9
F13.870898880445509
sg10
F11.618392974903964
sg11
F0.34210526315789475
sg12
I00
sg13
F7.850103545175582
sg14
F13.457292996230867
ssS'GIBBS DANA R'
p41
(dp42
g3
F12.352742588236998
sg4
F0.0
sg5
F13.781460374553788
sg6
F13.558945615643756
sg7
F14.612240875580095
sg8
F10.380339296476752
sg9
F14.612240875580095
sg10
F9.958508406881437
sg11
F0.0
sg12
I00
sg13
F3.1780538303479458
sg14
F13.214425573300883
ssS'LOWRY CHARLES P'
p43
(dp44
g3
F12.352742588236998
sg4
F0.03796297849889601
sg5
F13.500163702516804
sg6
F13.558945615643756
sg7
F12.827202743425751
sg8
F10.380339296476752
sg9
F12.827202743425751
sg10
F9.958508406881437
sg11
F0.18405548201274122
sg12
I00
sg13
F6.2864751982090095
sg14
F11.942673345598234
ssS'COLWELL WESLEY'
p45
(dp46
g3
F12.572599400617682
sg4
F0.13651877133105803
sg5
F14.214518194743714
sg6
F13.997832948091217
sg7
F13.456322458694515
sg8
F9.71202433782489
sg9
F13.870898880445509
sg10
F11.530185647304272
sg11
F0.275
sg12
I01
sg13
F7.0326242610280065
sg14
F13.456322458694515
ssS'MULLER MARK S'
p47
(dp48
g3
F12.43581438087261
sg4
F0.08823529411764706
sg5
F14.97930834593444
sg6
F13.910821646859095
sg7
F14.163945949832952
sg8
F10.380339296476752
sg9
F13.870302674329341
sg10
F6.854354502255021
sg11
F0.0
sg12
I00
sg13
F4.744932128363249
sg14
F12.795327676299726
ssS'JACKSON CHARLENE R'
p49
(dp50
g3
F12.572654850087634
sg4
F0.09689922480620156
sg5
F13.21980764206518
sg6
F12.429220196836383
sg7
F13.494941591311562
sg8
F9.228376734462282
sg9
F12.128456990180906
sg10
F7.798112628829788
sg11
F0.3392857142857143
sg12
I00
sg13
F4.770684624465665
sg14
F13.200569938854194
ssS'WESTFAHL RICHARD K'
p51
(dp52
g3
F11.062646028572223
sg4
F0.03796297849889601
sg5
F13.543880296433825
sg6
F13.558945615643756
sg7
F12.860819376428738
sg8
F10.856515146126256
sg9
F13.870898880445509
sg10
F12.90204333623111
sg11
F0.18405548201274122
sg12
I00
sg13
F6.2864751982090095
sg14
F12.860819376428738
ssS'WALTERS GARETH W'
p53
(dp54
g3
F12.352742588236998
sg4
F0.03796297849889601
sg5
F11.378376411847727
sg6
F13.558945615643756
sg7
F13.845389697241945
sg8
F10.427801794482674
sg9
F13.845389697241945
sg10
F9.958508406881437
sg11
F0.18405548201274122
sg12
I00
sg13
F6.2864751982090095
sg14
F13.214425573300883
ssS'WALLS JR ROBERT H'
p55
(dp56
g3
F12.785748730643274
sg4
F0.02533532041728763
sg5
F14.402619771225618
sg6
F13.652992804936396
sg7
F15.590293063944639
sg8
F10.83834485398412
sg9
F15.284891834605375
sg10
F1.0986122886681098
sg11
F0.0
sg12
I00
sg13
F5.375278407684165
sg14
F14.255347462721176
ssS'KITCHEN LOUISE'
p57
(dp58
g3
F12.511507451563261
sg4
F0.030222757375075255
sg5
F15.059994204407577
sg6
F14.946912992035967
sg7
F13.21246730087218
sg8
F8.661293535389994
sg9
F11.302735156993558
sg10
F11.450262517178146
sg11
F0.11226851851851852
sg12
I00
sg13
F8.207946941048617
sg14
F13.052159773276323
ssS'CHAN RONNIE'
p59
(dp60
g3
F12.352742588236998
sg4
F0.03796297849889601
sg5
F13.500163702516804
sg6
F13.558945615643756
sg7
F14.01101653337591
sg8
F10.380339296476752
sg9
F13.870898880445509
sg10
F9.958508406881437
sg11
F0.18405548201274122
sg12
I00
sg13
F6.2864751982090095
sg14
F10.38779464774131
ssS'BELFER ROBERT'
p61
(dp62
g3
F12.352742588236998
sg4
F0.03796297849889601
sg5
F11.537627833610571
sg6
F13.558945615643756
sg7
F10.694078997756927
sg8
F10.380339296476752
sg9
F8.097426298597213
sg10
F9.958508406881437
sg11
F0.18405548201274122
sg12
I00
sg13
F6.2864751982090095
sg14
F13.214425573300883
ssS'SHANKMAN JEFFREY A'
p63
(dp64
g3
F12.625148045322993
sg4
F0.029183483390251473
sg5
F14.9269413376068
sg6
F14.508658238524097
sg7
F14.54404225672795
sg8
F12.095029346736847
sg9
F14.181471552765126
sg10
F7.083387847625295
sg11
F0.030958597538232
sg12
I00
sg13
F7.456454555176209
sg14
F13.353694121999334
ssS'WODRASKA JOHN'
p65
(dp66
g3
F12.352742588236998
sg4
F0.03796297849889601
sg5
F12.152587477056521
sg6
F13.558945615643756
sg7
F14.01101653337591
sg8
F10.380339296476752
sg9
F13.870898880445509
sg10
F12.152587477056521
sg11
F0.18405548201274122
sg12
I00
sg13
F6.2864751982090095
sg14
F13.214425573300883
ssS'BERGSIEKER RICHARD P'
p67
(dp68
g3
F12.14378758344547
sg4
F0.010443864229765013
sg5
F13.335619811867323
sg6
F12.429220196836383
sg7
F13.398858104215533
sg8
F10.988271333267704
sg9
F13.870898880445509
sg10
F12.96528140553532
sg11
F0.0
sg12
I00
sg13
F5.455321115357702
sg14
F13.398858104215533
ssS'URQUHART JOHN A'
p69
(dp70
g3
F12.352742588236998
sg4
F0.03796297849889601
sg5
F12.339978343093861
sg6
F13.558945615643756
sg7
F14.01101653337591
sg8
F12.339978343093861
sg9
F13.870898880445509
sg10
F9.958508406881437
sg11
F0.18405548201274122
sg12
I00
sg13
F6.2864751982090095
sg14
F13.214425573300883
ssS'BIBI PHILIPPE A'
p71
(dp72
g3
F12.271982101506994
sg4
F0.01431238332296204
sg5
F14.532176003301455
sg6
F13.815511557963774
sg7
F14.427348437393073
sg8
F10.559970748724481
sg9
F14.197867381105327
sg10
F12.96146431168911
sg11
F0.2
sg12
I00
sg13
F7.198183577101943
sg14
F12.84286902721786
ssS'PIRO JIM'
p73
(dp74
g3
F12.352742588236998
sg4
F0.0
sg5
F13.500163702516804
sg6
F13.558945615643756
sg7
F10.764371277138544
sg8
F10.380339296476752
sg9
F13.870898880445509
sg10
F9.958508406881437
sg11
F0.0625
sg12
I00
sg13
F1.3862943611198906
sg14
F10.764371277138544
ssS'RIEKER PAULA H'
p75
(dp76
g3
F12.426019091545413
sg4
F0.02635542168674699
sg5
F13.910003130891898
sg6
F13.458837042595952
sg7
F14.467256409555498
sg8
F10.412471481422747
sg9
F14.30729952900065
sg10
F7.576097340623111
sg11
F0.5853658536585366
sg12
I01
sg13
F7.138073034044347
sg14
F12.555496362754713
ssS'WHALEY DAVID A'
p77
(dp78
g3
F12.352742588236998
sg4
F0.03796297849889601
sg5
F13.500163702516804
sg6
F13.558945615643756
sg7
F11.500032709428266
sg8
F10.380339296476752
sg9
F11.500032709428266
sg10
F9.958508406881437
sg11
F0.18405548201274122
sg12
I00
sg13
F6.2864751982090095
sg14
F13.214425573300883
ssS'BECK SALLY W'
p79
(dp80
g3
F12.351604864314632
sg4
F0.01968557758031442
sg5
F13.784091095768115
sg6
F13.458837042595952
sg7
F11.744259383468137
sg8
F10.523337970284603
sg9
F13.870898880445509
sg10
F6.340359303727752
sg11
F0.08887865530739121
sg12
I00
sg13
F7.878534196140362
sg14
F11.744259383468137
ssS'HAUG DAVID L'
p81
(dp82
g3
F12.352742588236998
sg4
F0.006980802792321117
sg5
F6.16541785423142
sg6
F13.558945615643756
sg7
F14.611800797441088
sg8
F6.16541785423142
sg9
F13.870898880445509
sg10
F9.958508406881437
sg11
F0.3684210526315789
sg12
I00
sg13
F6.156978985585554
sg14
F14.611800797441088
ssS'ECHOLS JOHN B'
p83
(dp84
g3
F12.113112701756245
sg4
F0.03796297849889601
sg5
F14.805915690542918
sg6
F12.206077645517674
sg7
F13.82441281502746
sg8
F9.977249036098181
sg9
F13.307080396120378
sg10
F10.892582549964889
sg11
F0.18405548201274122
sg12
I00
sg13
F6.2864751982090095
sg14
F12.917806027565799
ssS'MENDELSOHN JOHN'
p85
(dp86
g3
F12.352742588236998
sg4
F0.03796297849889601
sg5
F5.003946305945459
sg6
F13.558945615643756
sg7
F14.01101653337591
sg8
F5.003946305945459
sg9
F13.870898880445509
sg10
F9.958508406881437
sg11
F0.18405548201274122
sg12
I00
sg13
F6.2864751982090095
sg14
F13.214425573300883
ssS'HICKERSON GARY J'
p87
(dp88
g3
F12.263345775012255
sg4
F0.030303030303030304
sg5
F14.548742021001846
sg6
F14.346139397261565
sg7
F12.997020084891032
sg8
F11.501358828598763
sg9
F13.870898880445509
sg10
F7.5688956634069955
sg11
F0.037037037037037035
sg12
I00
sg13
F6.803505257608338
sg14
F12.997020084891032
ssS'CLINE KENNETH W'
p89
(dp90
g3
F12.352742588236998
sg4
F0.03796297849889601
sg5
F13.500163702516804
sg6
F13.558945615643756
sg7
F12.152244562330777
sg8
F10.380339296476752
sg9
F13.870898880445509
sg10
F9.958508406881437
sg11
F0.18405548201274122
sg12
I00
sg13
F6.2864751982090095
sg14
F13.403152246223877
ssS'LEWIS RICHARD'
p91
(dp92
g3
F12.352742588236998
sg4
F0.01050420168067227
sg5
F13.500163702516804
sg6
F13.558945615643756
sg7
F13.653553823346515
sg8
F10.380339296476752
sg9
F13.653553823346515
sg10
F9.958508406881437
sg11
F0.0
sg12
I00
sg13
F6.606650186198215
sg14
F13.214425573300883
ssS'HAYES ROBERT E'
p93
(dp94
g3
F12.352742588236998
sg4
F0.031746031746031744
sg5
F8.982435503560263
sg6
F13.558945615643756
sg7
F11.927806107488086
sg8
F10.380339296476752
sg9
F13.870898880445509
sg10
F9.958508406881437
sg11
F0.0
sg12
I00
sg13
F3.9318256327243257
sg14
F11.927806107488086
ssS'KOPPER MICHAEL J'
p95
(dp96
g3
F12.32076647003907
sg4
F0.03796297849889601
sg5
F14.791055749882375
sg6
F13.592368256649284
sg7
F13.8004304221311
sg8
F11.679583317297576
sg9
F13.870898880445509
sg10
F13.718452150900802
sg11
F0.18405548201274122
sg12
I01
sg13
F6.2864751982090095
sg14
F13.8004304221311
ssS'LEFF DANIEL P'
p97
(dp98
g3
F12.519959601148688
sg4
F0.02374202693125443
sg5
F14.795425267908946
sg6
F13.815511557963774
sg7
F12.795327676299726
sg8
F10.380339296476752
sg9
F13.870898880445509
sg10
F8.03398273468322
sg11
F0.2222222222222222
sg12
I00
sg13
F7.890956716138919
sg14
F12.795327676299726
ssS'LAVORATO JOHN J'
p99
(dp100
g3
F12.7346075305592
sg4
F0.07273729163796666
sg5
F16.159790032838043
sg6
F15.894952224644102
sg7
F15.457830869581203
sg8
F10.810495330811365
sg9
F15.24078425695493
sg10
F7.347943823148687
sg11
F0.15899419729206962
sg12
I00
sg13
F8.284756593190435
sg14
F13.823627526066222
ssS'BERBERIAN DAVID'
p101
(dp102
g3
F12.28572912478096
sg4
F0.03796297849889601
sg5
F12.339182074140405
sg6
F13.558945615643756
sg7
F14.729244824864704
sg8
F9.383705270727246
sg9
F14.30064722795682
sg10
F9.958508406881437
sg11
F0.18405548201274122
sg12
I00
sg13
F6.2864751982090095
sg14
F13.675352687219823
ssS'DETMERING TIMOTHY J'
p103
(dp104
g3
F12.257245682687113
sg4
F0.03796297849889601
sg5
F14.001644837086145
sg6
F12.959846800844963
sg7
F14.522494566559475
sg8
F10.863909995770191
sg9
F14.522494566559475
sg10
F7.00850518208228
sg11
F0.18405548201274122
sg12
I00
sg13
F6.2864751982090095
sg14
F12.66054694143939
ssS'WAKEHAM JOHN'
p105
(dp106
g3
F12.352742588236998
sg4
F0.03796297849889601
sg5
F12.269385415741926
sg6
F13.558945615643756
sg7
F14.01101653337591
sg8
F11.549970736642578
sg9
F13.870898880445509
sg10
F9.958508406881437
sg11
F0.18405548201274122
sg12
I00
sg13
F6.2864751982090095
sg14
F13.214425573300883
ssS'POWERS WILLIAM'
p107
(dp108
g3
F12.352742588236998
sg4
F0.0
sg5
F13.500163702516804
sg6
F13.558945615643756
sg7
F14.01101653337591
sg8
F10.380339296476752
sg9
F13.870898880445509
sg10
F9.958508406881437
sg11
F0.0
sg12
I00
sg13
F2.5649493574615367
sg14
F13.214425573300883
ssS'GOLD JOSEPH'
p109
(dp110
g3
F12.516791081700296
sg4
F0.03796297849889601
sg5
F14.579569966866773
sg6
F13.527829818844937
sg7
F13.684959861505098
sg8
F10.380339296476752
sg9
F12.986580308801921
sg10
F13.616192169944329
sg11
F0.18405548201274122
sg12
I00
sg13
F6.2864751982090095
sg14
F12.997020084891032
ssS'BANNANTINE JAMES M'
p111
(dp112
g3
F6.169610732491456
sg4
F0.06890459363957598
sg5
F13.727987777502905
sg6
F13.558945615643756
sg7
F15.472497483706254
sg8
F10.938485337475505
sg9
F15.213278346861845
sg10
F13.669934345432106
sg11
F0.0
sg12
I00
sg13
F6.144185634125646
sg14
F14.379433058684521
ssS'DUNCAN JOHN H'
p113
(dp114
g3
F12.352742588236998
sg4
F0.03796297849889601
sg5
F11.257942888681463
sg6
F13.558945615643756
sg7
F12.825979554298609
sg8
F10.380339296476752
sg9
F12.825979554298609
sg10
F9.958508406881437
sg11
F0.18405548201274122
sg12
I00
sg13
F6.2864751982090095
sg14
F13.214425573300883
ssS'SHAPIRO RICHARD S'
p115
(dp116
g3
F12.50275286297675
sg4
F0.0048848108786058485
sg5
F13.871464524526504
sg6
F13.384729180332172
sg7
F13.802427344756017
sg8
F11.833326389984736
sg9
F13.317663678076476
sg10
F6.559615237493242
sg11
F0.053497942386831275
sg12
I00
sg13
F8.41803561988302
sg14
F12.845726745525079
ssS'SHERRIFF JOHN R'
p117
(dp118
g3
F12.968701578055533
sg4
F0.008785691873235017
sg5
F15.282321898888277
sg6
F14.220976332738882
sg7
F14.95621858959056
sg8
F10.380339296476752
sg9
F14.422859625232443
sg10
F14.431877661013187
sg11
F0.25
sg12
I00
sg13
F7.651595573857601
sg14
F14.0728042967084
ssS'SHELBY REX'
p119
(dp120
g3
F12.263610154171277
sg4
F0.057777777777777775
sg5
F14.510598853341264
sg6
F12.206077645517674
sg7
F14.729244824864704
sg8
F10.038236953087743
sg9
F14.30064722795682
sg10
F14.268701772269432
sg11
F0.358974358974359
sg12
I01
sg13
F4.5217885770490405
sg14
F13.675352687219823
ssS'LEMAISTRE CHARLES'
p121
(dp122
g3
F12.352742588236998
sg4
F0.03796297849889601
sg5
F11.379314069145535
sg6
F13.558945615643756
sg7
F12.930909850808437
sg8
F10.380339296476752
sg9
F12.930909850808437
sg10
F9.958508406881437
sg11
F0.18405548201274122
sg12
I00
sg13
F6.2864751982090095
sg14
F13.214425573300883
ssS'DEFFNER JOSEPH M'
p123
(dp124
g3
F12.236223505480668
sg4
F0.16106442577030813
sg5
F14.005014592234245
sg6
F13.304686600863562
sg7
F11.977991926436147
sg8
F10.636504274176522
sg9
F9.763017859764734
sg10
F10.14854913915127
sg11
F0.05405405405405406
sg12
I00
sg13
F6.315358001522335
sg14
F11.862412638668935
ssS'KISHKILL JOSEPH G'
p125
(dp126
g3
F12.068229111831808
sg4
F0.03796297849889601
sg5
F13.465806971830084
sg6
F13.558945615643756
sg7
F13.849280867694775
sg8
F11.664237834889837
sg9
F13.870898880445509
sg10
F13.050562280827428
sg11
F0.18405548201274122
sg12
I00
sg13
F6.2864751982090095
sg14
F13.849280867694775
ssS'WHALLEY LAWRENCE G'
p127
(dp128
g3
F13.142881434993724
sg4
F0.03090214321315833
sg5
F15.358290371208142
sg6
F14.914123179965662
sg7
F15.620373467575348
sg8
F10.965418567609882
sg9
F15.004256317034553
sg10
F12.614955240704797
sg11
F0.04316546762589928
sg12
I00
sg13
F8.27410200229233
sg14
F14.843764042684295
ssS'MCCARTY DANNY J'
p129
(dp130
g3
F12.352742588236998
sg4
F0.017445917655268667
sg5
F13.500163702516804
sg6
F13.558945615643756
sg7
F13.53966746079635
sg8
F10.380339296476752
sg9
F13.406603533251252
sg10
F9.958508406881437
sg11
F0.009302325581395349
sg12
I00
sg13
F6.2324480165505225
sg14
F11.456958106248324
ssS'MCCONNELL MICHAEL S'
p131
(dp132
g3
F12.807759476171716
sg4
F0.02763592670471613
sg5
F14.55809769153515
sg6
F13.910821646859095
sg7
F14.947325487460104
sg8
F11.306700484094714
sg9
F14.299793624046158
sg10
F6.293419278846481
sg11
F0.07075127644055434
sg12
I00
sg13
F7.691656822810548
sg14
F14.206383043102798
ssS'DELAINEY DAVID W'
p133
(dp134
g3
F12.808101846721332
sg4
F0.02133850630455868
sg5
F15.37322982240291
sg6
F14.914123179965662
sg7
F15.100398243356087
sg8
F11.364135391385066
sg9
F14.64454872012781
sg10
F7.415776975415394
sg11
F0.198435972629521
sg12
I01
sg13
F7.6487397889562425
sg14
F14.095525059582528
ssS'SULLIVAN-SHAKLOVITZ COLLEEN'
p135
(dp136
g3
F12.000154874881032
sg4
F0.03796297849889601
sg5
F13.814867351151115
sg6
F11.51293546492023
sg7
F14.124740792203637
sg8
F10.380339296476752
sg9
F14.124740792203637
sg10
F5.093750200806762
sg11
F0.18405548201274122
sg12
I00
sg13
F6.2864751982090095
sg14
F13.214425573300883
ssS'WROBEL BRUCE'
p137
(dp138
g3
F12.352742588236998
sg4
F0.03796297849889601
sg5
F13.500163702516804
sg6
F13.558945615643756
sg7
F11.843171214332553
sg8
F10.380339296476752
sg9
F11.843171214332553
sg10
F9.958508406881437
sg11
F0.18405548201274122
sg12
I00
sg13
F6.2864751982090095
sg14
F13.214425573300883
ssS'LINDHOLM TOD A'
p139
(dp140
g3
F12.37352588129117
sg4
F0.03796297849889601
sg5
F13.682995791257603
sg6
F12.206077645517674
sg7
F14.935300019004572
sg8
F10.963497603422297
sg9
F14.751353689751918
sg10
F7.875119281040293
sg11
F0.18405548201274122
sg12
I00
sg13
F6.2864751982090095
sg14
F13.151626990450762
ssS'MEYER JEROME J'
p141
(dp142
g3
F12.352742588236998
sg4
F0.03796297849889601
sg5
F7.674152921281675
sg6
F13.558945615643756
sg7
F14.01101653337591
sg8
F7.674152921281675
sg9
F13.870898880445509
sg10
F9.958508406881437
sg11
F0.18405548201274122
sg12
I00
sg13
F6.2864751982090095
sg14
F13.214425573300883
ssS'LAY KENNETH L'
p143
(dp144
g3
F13.885336948644234
sg4
F0.028785396676807865
sg5
F18.45565972366062
sg6
F15.76142084987672
sg7
F17.70957484664781
sg8
F11.511254068965794
sg9
F17.3520655595157
sg10
F16.153436732679936
sg11
F0.4444444444444444
sg12
I01
sg13
F7.788211557847076
sg14
F16.507546207941665
ssS'BUTTS ROBERT H'
p145
(dp146
g3
F12.474254569934315
sg4
F0.03796297849889601
sg5
F14.055773138945462
sg6
F13.527829818844937
sg7
F12.942327207124054
sg8
F9.149634496858788
sg9
F13.870898880445509
sg10
F11.922761008795927
sg11
F0.18405548201274122
sg12
I00
sg13
F6.2864751982090095
sg14
F12.942327207124054
ssS'OLSON CINDY K'
p147
(dp148
g3
F12.704053122503483
sg4
F0.016891891891891893
sg5
F14.09432190158285
sg6
F13.527829818844937
sg7
F14.77362016330971
sg8
F11.063383069621135
sg9
F14.308397236698932
sg10
F6.880384082186005
sg11
F0.28846153846153844
sg12
I00
sg13
F6.75343791859778
sg14
F13.784772961217406
ssS'MCDONALD REBECCA'
p149
(dp150
g3
F12.352742588236998
sg4
F0.06040268456375839
sg5
F13.500163702516804
sg6
F13.558945615643756
sg7
F14.341047635675224
sg8
F10.380339296476752
sg9
F13.537517396059739
sg10
F9.958508406881437
sg11
F0.07692307692307693
sg12
I00
sg13
F6.580639137284948
sg14
F13.747302378525973
ssS'CUMBERLAND MICHAEL S'
p151
(dp152
g3
F12.127570417375217
sg4
F0.03796297849889601
sg5
F13.602264118265332
sg6
F12.691583538230217
sg7
F12.245009664599941
sg8
F10.014357861367552
sg9
F13.870898880445509
sg10
F6.570882962339584
sg11
F0.18405548201274122
sg12
I00
sg13
F6.2864751982090095
sg14
F12.245009664599941
ssS'GAHN ROBERT S'
p153
(dp154
g3
F12.165297524911322
sg4
F0.03796297849889601
sg5
F13.710800941536686
sg6
F13.141913031529024
sg7
F12.671716785998456
sg8
F10.82139697362574
sg9
F11.32945925330878
sg10
F11.245673274029956
sg11
F0.18405548201274122
sg12
I00
sg13
F6.2864751982090095
sg14
F12.368918271656792
ssS'MCCLELLAN GEORGE'
p155
(dp156
g3
F12.481482217979835
sg4
F0.02981651376146789
sg5
F14.09220549226391
sg6
F13.710151153416941
sg7
F13.76196420102062
sg8
F12.340446183450783
sg9
F13.135804637570123
sg10
F10.851044366284281
sg11
F0.0
sg12
I00
sg13
F7.293017679772782
sg14
F12.997020084891032
ssS'HERMANN ROBERT J'
p157
(dp158
g3
F12.478630927836107
sg4
F0.03796297849889601
sg5
F14.075920606502745
sg6
F13.458837042595952
sg7
F13.412242534497056
sg8
F10.786386947380556
sg9
F12.141539457711714
sg10
F12.939502475189776
sg11
F0.18405548201274122
sg12
I00
sg13
F6.2864751982090095
sg14
F13.082859264097017
ssS'SCRIMSHAW MATTHEW'
p159
(dp160
g3
F12.352742588236998
sg4
F0.03796297849889601
sg5
F13.500163702516804
sg6
F13.558945615643756
sg7
F13.54049196413251
sg8
F10.380339296476752
sg9
F13.54049196413251
sg10
F9.958508406881437
sg11
F0.18405548201274122
sg12
I00
sg13
F6.2864751982090095
sg14
F13.214425573300883
ssS'GATHMANN WILLIAM D'
p161
(dp162
g3
F12.352742588236998
sg4
F0.03796297849889601
sg5
F13.500163702516804
sg6
F13.558945615643756
sg7
F14.480958121925482
sg8
F10.380339296476752
sg9
F14.377276603865726
sg10
F9.958508406881437
sg11
F0.18405548201274122
sg12
I00
sg13
F6.2864751982090095
sg14
F12.483757411025426
ssS'HAEDICKE MARK E'
p163
(dp164
g3
F12.832347918054868
sg4
F0.04489897730107259
sg5
F15.165935743249896
sg6
F13.955273369904273
sg7
F13.596228292282438
sg8
F11.240722963366833
sg9
F13.31916459608806
sg10
F10.866337390190237
sg11
F0.03142709943328181
sg12
I00
sg13
F7.521859252201629
sg14
F13.169571338168879
ssS'BOWEN JR RAYMOND M'
p165
(dp166
g3
F12.537539519052972
sg4
F0.07534983853606028
sg5
F14.797435460532752
sg6
F14.115615891155079
sg7
F12.437406564028082
sg8
F11.096015109177323
sg9
F13.870898880445509
sg10
F7.3914152346753585
sg11
F0.5555555555555556
sg12
I01
sg13
F7.374001859350161
sg14
F12.437406564028082
ssS'GILLIS JOHN'
p167
(dp168
g3
F12.352742588236998
sg4
F0.03796297849889601
sg5
F13.500163702516804
sg6
F13.558945615643756
sg7
F11.357931096004025
sg8
F10.380339296476752
sg9
F9.190545744648004
sg10
F9.958508406881437
sg11
F0.18405548201274122
sg12
I00
sg13
F6.2864751982090095
sg14
F11.236367951187963
ssS'FITZGERALD JAY L'
p169
(dp170
g3
F12.201853758528552
sg4
F0.0010683760683760685
sg5
F14.162539730666852
sg6
F12.765691290604371
sg7
F14.298699996076401
sg8
F10.080419612045645
sg9
F13.40673296964624
sg10
F12.561699540457354
sg11
F0.5
sg12
I00
sg13
F6.584791392385716
sg14
F13.771324578251866
ssS'MORAN MICHAEL P'
p171
(dp172
g3
F12.352742588236998
sg4
F0.0
sg5
F13.500163702516804
sg6
F13.558945615643756
sg7
F12.306560308099993
sg8
F10.380339296476752
sg9
F10.994403634569768
sg10
F9.958508406881437
sg11
F0.0
sg12
I00
sg13
F4.852030263919617
sg14
F11.992897989253253
ssS'REDMOND BRIAN L'
p173
(dp174
g3
F11.480825737310122
sg4
F0.12208258527827648
sg5
F11.622048891988582
sg6
F13.558945615643756
sg7
F15.881147883355212
sg8
F9.594922269167922
sg9
F15.831618186008836
sg10
F9.958508406881437
sg11
F0.22171945701357465
sg12
I00
sg13
F6.96979066990159
sg14
F12.851305028675391
ssS'BAZELIDES PHILIP J'
p175
(dp176
g3
F11.29996736538096
sg4
F0.03796297849889601
sg5
F13.664846957868004
sg6
F13.558945615643756
sg7
F14.285290412174243
sg8
F10.380339296476752
sg9
F14.285290412174243
sg10
F6.774223886357614
sg11
F0.18405548201274122
sg12
I00
sg13
F6.2864751982090095
sg14
F13.214425573300883
ssS'BELDEN TIMOTHY N'
p177
(dp178
g3
F12.273731294003989
sg4
F0.028532098610937303
sg5
F15.520555151696334
sg6
F15.473738634567807
sg7
F13.92050640713936
sg8
F9.761693546918242
sg9
F13.767513928862593
sg10
F12.258185853696537
sg11
F0.2231404958677686
sg12
I01
sg13
F8.6164953924901
sg14
F11.967625082956092
ssS'DURAN WILLIAM D'
p179
(dp180
g3
F12.258157376649036
sg4
F0.1172566371681416
sg5
F14.554235128208651
sg6
F13.527829818844937
sg7
F14.31076213337902
sg8
F10.157586987970783
sg9
F14.188362938678237
sg10
F7.358193752733032
sg11
F0.25
sg12
I00
sg13
F6.396929655216146
sg14
F12.149724491576299
ssS'THORN TERENCE H'
p181
(dp182
g3
F12.31085599465944
sg4
F0.0
sg5
F13.72279640556299
sg6
F13.558945615643756
sg7
F15.387827327603885
sg8
F10.739565562285108
sg9
F15.30897112849533
sg10
F12.963672406034851
sg11
F0.0
sg12
I00
sg13
F4.30406509320417
sg14
F12.808531698128048
ssS'FASTOW ANDREW S'
p183
(dp184
g3
F12.99611738171019
sg4
F0.03796297849889601
sg5
F14.70096427903627
sg6
F14.077875591662236
sg7
F14.400188506923373
sg8
F10.931713141647238
sg9
F13.870898880445509
sg10
F12.533450078087931
sg11
F0.18405548201274122
sg12
I01
sg13
F6.2864751982090095
sg14
F14.400188506923373
ssS'FOY JOE'
p185
(dp186
g3
F12.352742588236998
sg4
F0.0
sg5
F12.110420407230512
sg6
F13.558945615643756
sg7
F12.746753144208721
sg8
F10.380339296476752
sg9
F12.746753144208721
sg10
F9.958508406881437
sg11
F0.0
sg12
I00
sg13
F1.0986122886681098
sg14
F13.214425573300883
ssS'CALGER CHRISTOPHER F'
p187
(dp188
g3
F12.38918555578803
sg4
F0.07659738260200154
sg5
F14.309778659380864
sg6
F14.038654909278163
sg7
F11.744259383468137
sg8
F10.486233757860406
sg9
F13.870898880445509
sg10
F6.18826412308259
sg11
F0.1736111111111111
sg12
I01
sg13
F7.691200097522863
sg14
F11.744259383468137
ssS'RICE KENNETH D'
p189
(dp190
g3
F12.949525507948925
sg4
F0.04640883977900553
sg5
F13.132414693257351
sg6
F14.375126917328105
sg7
F16.930914748780708
sg8
F10.75685978366411
sg9
F16.80089831098255
sg10
F12.07162654897725
sg11
F0.2222222222222222
sg12
I01
sg13
F6.762729506931879
sg14
F14.826516747375974
ssS'KAMINSKI WINCENTY J'
p191
(dp192
g3
F12.524897216969846
sg4
F0.008899500759713479
sg5
F13.898768399244425
sg6
F12.899222326086996
sg7
F13.791256799063534
sg8
F11.33363132093428
sg9
F13.653004569559233
sg10
F8.448914350662942
sg11
F0.011901447661469933
sg12
I00
sg13
F6.369900982828227
sg14
F11.744259383468137
ssS'LOCKHART EUGENE E'
p193
(dp194
g3
F12.352742588236998
sg4
F0.03796297849889601
sg5
F13.500163702516804
sg6
F13.558945615643756
sg7
F14.01101653337591
sg8
F10.380339296476752
sg9
F13.870898880445509
sg10
F9.958508406881437
sg11
F0.18405548201274122
sg12
I00
sg13
F6.2864751982090095
sg14
F13.214425573300883
ssS'COX DAVID'
p195
(dp196
g3
F12.658068223764037
sg4
F0.0
sg5
F13.91208720818355
sg6
F13.592368256649284
sg7
F13.113593030096668
sg8
F10.23501903226617
sg9
F11.674636067860058
sg10
F6.20455776256869
sg11
F0.12121212121212122
sg12
I00
sg13
F4.276666119016055
sg14
F12.84286902721786
ssS'OVERDYKE JR JERE C'
p197
(dp198
g3
F11.461021457819806
sg4
F0.03796297849889601
sg5
F12.428367837088988
sg6
F13.558945615643756
sg7
F15.80442477622515
sg8
F9.843472120126142
sg9
F15.476891563620928
sg10
F5.176149732573829
sg11
F0.18405548201274122
sg12
I00
sg13
F6.2864751982090095
sg14
F14.52895877100766
ssS'PEREIRA PAULO V. FERRAZ'
p199
(dp200
g3
F12.352742588236998
sg4
F0.03796297849889601
sg5
F10.237921999988911
sg6
F13.558945615643756
sg7
F14.01101653337591
sg8
F10.237921999988911
sg9
F13.870898880445509
sg10
F9.958508406881437
sg11
F0.18405548201274122
sg12
I00
sg13
F6.2864751982090095
sg14
F13.214425573300883
ssS'STABLER FRANK'
p201
(dp202
g3
F12.38632122185069
sg4
F0.03796297849889601
sg5
F13.921749887352169
sg6
F13.122365377402328
sg7
F13.145562191906851
sg8
F9.71202433782489
sg9
F13.870898880445509
sg10
F12.782888236575975
sg11
F0.18405548201274122
sg12
I00
sg13
F6.2864751982090095
sg14
F13.145562191906851
ssS'SKILLING JEFFREY K'
p203
(dp204
g3
F13.921004164765082
sg4
F0.0242624758753791
sg5
F15.976845056089664
sg6
F15.538277334276788
sg7
F17.077203429112846
sg8
F10.286604796980384
sg9
F16.773021670646116
sg10
F10.004373070309986
sg11
F0.2777777777777778
sg12
I01
sg13
F7.622174594817622
sg14
F15.7388351337762
ssS'BLAKE JR. NORMAN P'
p205
(dp206
g3
F12.352742588236998
sg4
F0.03796297849889601
sg5
F7.154615356913663
sg6
F13.558945615643756
sg7
F14.01101653337591
sg8
F7.154615356913663
sg9
F13.870898880445509
sg10
F9.958508406881437
sg11
F0.18405548201274122
sg12
I00
sg13
F6.2864751982090095
sg14
F13.214425573300883
ssS'SHERRICK JEFFREY B'
p207
(dp208
g3
F12.352742588236998
sg4
F0.0636215334420881
sg5
F13.500163702516804
sg6
F13.558945615643756
sg7
F14.421174795819498
sg8
F10.380339296476752
sg9
F14.17071341892033
sg10
F9.958508406881437
sg11
F0.72
sg12
I00
sg13
F6.369900982828227
sg14
F12.914108438583872
ssS'PRENTICE JAMES'
p209
(dp210
g3
F12.352742588236998
sg4
F0.03796297849889601
sg5
F13.243428133432172
sg6
F13.558945615643756
sg7
F13.906302363454143
sg8
F10.380339296476752
sg9
F13.694734046326026
sg10
F9.958508406881437
sg11
F0.18405548201274122
sg12
I00
sg13
F6.2864751982090095
sg14
F12.249180026564106
ssS'GRAY RODNEY'
p211
(dp212
g3
F8.797246236703527
sg4
F0.03796297849889601
sg5
F13.952363054612608
sg6
F13.558945615643756
sg7
F14.01101653337591
sg8
F10.380339296476752
sg9
F13.870898880445509
sg10
F13.431073796239872
sg11
F0.18405548201274122
sg12
I00
sg13
F6.2864751982090095
sg14
F13.214425573300883
ssS'PICKERING MARK R'
p213
(dp214
g3
F13.392448528201744
sg4
F0.0077951002227171495
sg5
F14.142430891492294
sg6
F12.611541086966115
sg7
F10.268095943298984
sg8
F10.362619801893228
sg9
F10.268095943298984
sg10
F9.958508406881437
sg11
F0.0
sg12
I00
sg13
F6.591673732008657
sg14
F13.214425573300883
ssS'THE TRAVEL AGENCY IN THE PARK'
p215
(dp216
g3
F12.352742588236998
sg4
F0.03796297849889601
sg5
F12.799667410715271
sg6
F13.558945615643756
sg7
F14.01101653337591
sg8
F10.380339296476752
sg9
F13.870898880445509
sg10
F12.799667410715271
sg11
F0.18405548201274122
sg12
I00
sg13
F6.2864751982090095
sg14
F13.214425573300883
ssS'NOLES JAMES L'
p217
(dp218
g3
F12.352742588236998
sg4
F0.03796297849889601
sg5
F13.559846397585797
sg6
F13.558945615643756
sg7
F12.817754857482829
sg8
F10.380339296476752
sg9
F13.870898880445509
sg10
F9.958508406881437
sg11
F0.18405548201274122
sg12
I00
sg13
F6.2864751982090095
sg14
F13.046048047751663
ssS'KEAN STEVEN J'
p219
(dp220
g3
F12.910008913999112
sg4
F0.010976948408342482
sg5
F14.373709914663003
sg6
F13.815511557963774
sg7
F15.632554822131697
sg8
F10.644329058958736
sg9
F14.519621911701174
sg10
F7.116394144093465
sg11
F0.05725699067909454
sg12
I00
sg13
F8.199738960630786
sg14
F15.234174088928967
ssS'FOWLER PEGGY'
p221
(dp222
g3
F12.352742588236998
sg4
F0.0
sg5
F13.500163702516804
sg6
F13.558945615643756
sg7
F14.44930521349946
sg8
F10.380339296476752
sg9
F14.096605231064672
sg10
F9.958508406881437
sg11
F0.0
sg12
I00
sg13
F2.3978952727983707
sg14
F13.235997373242185
ssS'WASAFF GEORGE'
p223
(dp224
g3
F12.468425371469557
sg4
F0.055
sg5
F13.849328239456284
sg6
F12.691583538230217
sg7
F14.536481055098799
sg8
F10.380339296476752
sg9
F14.327292324480066
sg10
F7.262628600974241
sg11
F0.23333333333333334
sg12
I00
sg13
F5.823045895483019
sg14
F12.869193514583147
ssS'WHITE JR THOMAS E'
p225
(dp226
g3
F12.668371670390357
sg4
F0.03796297849889601
sg5
F14.475287080382383
sg6
F13.017005083966255
sg7
F16.533123159899052
sg8
F11.306565281690364
sg9
F14.075603013056684
sg10
F13.897518103310182
sg11
F0.18405548201274122
sg12
I00
sg13
F6.2864751982090095
sg14
F16.44358457695785
ssS'CHRISTODOULOU DIOMEDES'
p227
(dp228
g3
F12.352742588236998
sg4
F0.03796297849889601
sg5
F13.500163702516804
sg6
F13.558945615643756
sg7
F15.620167496113183
sg8
F10.380339296476752
sg9
F15.450061677453322
sg10
F9.958508406881437
sg11
F0.18405548201274122
sg12
I00
sg13
F6.2864751982090095
sg14
F13.764986441367837
ssS'ALLEN PHILLIP K'
p229
(dp230
g3
F12.215805130874553
sg4
F0.016195727084769126
sg5
F15.31612485401232
sg6
F15.244625155788022
sg7
F14.36336719153978
sg8
F9.537411412656335
sg9
F14.36336719153978
sg10
F5.030437921392435
sg11
F0.029612756264236904
sg12
I00
sg13
F7.249925536717988
sg14
F11.744259383468137
ssS'SHARP VICTORIA T'
p231
(dp232
g3
F12.421776591480489
sg4
F0.007653061224489796
sg5
F14.27072536973657
sg6
F13.304686600863562
sg7
F13.110568085656999
sg8
F11.664255026325066
sg9
F12.546373258842353
sg10
F7.784057002639928
sg11
F0.04411764705882353
sg12
I00
sg13
F7.815207062189089
sg14
F12.269347869043214
ssS'JAEDICKE ROBERT'
p233
(dp234
g3
F12.352742588236998
sg4
F0.03796297849889601
sg5
F11.335603389914535
sg6
F13.558945615643756
sg7
F12.975604312161424
sg8
F10.380339296476752
sg9
F12.975604312161424
sg10
F9.958508406881437
sg11
F0.18405548201274122
sg12
I00
sg13
F6.2864751982090095
sg14
F10.694078997756927
ssS'WINOKUR JR. HERBERT S'
p235
(dp236
g3
F12.352742588236998
sg4
F0.03796297849889601
sg5
F11.350324179140088
sg6
F13.558945615643756
sg7
F14.01101653337591
sg8
F7.254177846456518
sg9
F13.870898880445509
sg10
F9.958508406881437
sg11
F0.18405548201274122
sg12
I00
sg13
F6.2864751982090095
sg14
F13.214425573300883
ssS'BROWN MICHAEL'
p237
(dp238
g3
F12.352742588236998
sg4
F0.008748317631224764
sg5
F10.805456211402726
sg6
F13.558945615643756
sg7
F14.01101653337591
sg8
F10.805456211402726
sg9
F13.870898880445509
sg10
F9.958508406881437
sg11
F0.024390243902439025
sg12
I00
sg13
F6.635946555686647
sg14
F13.214425573300883
ssS'BADUM JAMES P'
p239
(dp240
g3
F12.352742588236998
sg4
F0.03796297849889601
sg5
F12.11432461373662
sg6
F13.558945615643756
sg7
F12.460009188616919
sg8
F8.156797046675651
sg9
F12.460009188616919
sg10
F9.958508406881437
sg11
F0.18405548201274122
sg12
I00
sg13
F6.2864751982090095
sg14
F13.214425573300883
ssS'HUGHES JAMES A'
p241
(dp242
g3
F12.352742588236998
sg4
F0.048678720445062586
sg5
F13.500163702516804
sg6
F13.558945615643756
sg7
F13.927405179779301
sg8
F10.380339296476752
sg9
F13.534429318666641
sg10
F9.958508406881437
sg11
F0.14705882352941177
sg12
I00
sg13
F6.380122536899765
sg14
F12.803339233631423
ssS'REYNOLDS LAWRENCE'
p243
(dp244
g3
F11.243737975154612
sg4
F0.03796297849889601
sg5
F12.88531358091555
sg6
F11.51293546492023
sg7
F15.255793926769522
sg8
F9.037176752966994
sg9
F15.241187397998814
sg10
F12.216285318206342
sg11
F0.18405548201274122
sg12
I00
sg13
F6.2864751982090095
sg14
F12.213465252749673
ssS'DIMICHELE RICHARD G'
p245
(dp246
g3
F12.479106707791148
sg4
F0.03796297849889601
sg5
F14.677620462115184
sg6
F13.815511557963774
sg7
F15.933906310942772
sg8
F10.486066234965218
sg9
F15.91863884066159
sg10
F12.833854296408568
sg11
F0.18405548201274122
sg12
I00
sg13
F6.2864751982090095
sg14
F11.744259383468137
ssS'BHATNAGAR SANJAY'
p247
(dp248
g3
F12.352742588236998
sg4
F0.0
sg5
F16.55352666289695
sg6
F13.558945615643756
sg7
F14.01101653337591
sg8
F10.380339296476752
sg9
F14.772747820603724
sg10
F11.834030224460319
sg11
F0.034482758620689655
sg12
I00
sg13
F6.139884552226255
sg14
F14.772747820603724
ssS'CARTER REBECCA C'
p249
(dp250
g3
F12.475374328825467
sg4
F0.09294871794871795
sg5
F13.076440897495115
sg6
F12.611541086966115
sg7
F14.01101653337591
sg8
F10.380339296476752
sg9
F13.870898880445509
sg10
F6.293419278846481
sg11
F0.4666666666666667
sg12
I00
sg13
F5.2832037287379885
sg14
F12.635586256395477
ssS'BUCHANAN HAROLD G'
p251
(dp252
g3
F12.421256603158433
sg4
F0.0
sg5
F13.86870813804835
sg6
F13.122365377402328
sg7
F13.829912352473988
sg8
F6.398594934535208
sg9
F13.62370214289714
sg10
F7.103322062526112
sg11
F0.0
sg12
I00
sg13
F3.1780538303479458
sg14
F12.149724491576299
ssS'YEAP SOON'
p253
(dp254
g3
F12.352742588236998
sg4
F0.03796297849889601
sg5
F10.916868696841577
sg6
F13.558945615643756
sg7
F12.169195982942513
sg8
F10.916868696841577
sg9
F12.169195982942513
sg10
F9.958508406881437
sg11
F0.18405548201274122
sg12
I00
sg13
F6.2864751982090095
sg14
F13.214425573300883
ssS'MURRAY JULIA H'
p255
(dp256
g3
F12.34272105022129
sg4
F0.005018248175182482
sg5
F13.607495738096203
sg6
F12.899222326086996
sg7
F13.300445962438983
sg8
F10.960947931156728
sg9
F12.900416609658889
sg10
F5.802118375377063
sg11
F0.044444444444444446
sg12
I00
sg13
F5.981414211254481
sg14
F12.19087778614763
ssS'GARLAND C KEVIN'
p257
(dp258
g3
F12.354264176274302
sg4
F0.04784688995215311
sg5
F14.264335238217493
sg6
F13.652992804936396
sg7
F13.705867552188252
sg8
F10.787379051963605
sg9
F13.363342131708052
sg10
F11.015591748052536
sg11
F0.6136363636363636
sg12
I00
sg13
F5.187385805840755
sg14
F12.468083001225496
ssS'DODSON KEITH'
p259
(dp260
g3
F12.305936079883608
sg4
F0.056818181818181816
sg5
F12.675895008348142
sg6
F11.156264806643742
sg7
F14.01101653337591
sg8
F10.245835351328815
sg9
F13.870898880445509
sg10
F6.652863029353347
sg11
F0.21428571428571427
sg12
I00
sg13
F4.744932128363249
sg14
F13.214425573300883
ssS'YEAGER F SCOTT'
p261
(dp262
g3
F11.972904010568875
sg4
F0.03796297849889601
sg5
F12.794695072197221
sg6
F13.558945615643756
sg7
F16.29076738090992
sg8
F10.895775898636748
sg9
F15.932796024112507
sg10
F11.90463641684573
sg11
F0.18405548201274122
sg12
I01
sg13
F6.2864751982090095
sg14
F15.089813299506257
ssS'HIRKO JOSEPH'
p263
(dp264
g3
F12.352742588236998
sg4
F0.03796297849889601
sg5
F11.419647219388624
sg6
F13.558945615643756
sg7
F17.24192285481744
sg8
F11.264194838653388
sg9
F17.24192285481744
sg10
F7.957527402230774
sg11
F0.18405548201274122
sg12
I01
sg13
F6.2864751982090095
sg14
F13.214425573300883
ssS'DIETRICH JANET R'
p265
(dp266
g3
F12.429620115258357
sg4
F0.11858475894245724
sg5
F14.159429995220536
sg6
F13.304686600863562
sg7
F14.438818794933471
sg8
F8.153637486385282
sg9
F14.253778392037992
sg10
F6.161207321695077
sg11
F0.2222222222222222
sg12
I00
sg13
F7.551186867296149
sg14
F12.66054694143939
ssS'DERRICK JR. JAMES V'
p267
(dp268
g3
F13.106997931243473
sg4
F0.029344337459880788
sg5
F13.219457419724856
sg6
F13.592368256649284
sg7
F15.993882310132767
sg8
F10.842028893345102
sg9
F15.993882310132767
sg10
F8.920389060080359
sg11
F0.022002200220022004
sg12
I00
sg13
F7.2456550675945355
sg14
F14.396261977907617
ssS'FREVERT MARK A'
p269
(dp270
g3
F13.874659267628592
sg4
F0.07389312977099237
sg5
F16.663469415316317
sg6
F14.508658238524097
sg7
F16.498050522312557
sg8
F11.373525457088878
sg9
F16.16053416221109
sg10
F15.820716311629981
sg11
F0.2857142857142857
sg12
I00
sg13
F7.99967857949945
sg14
F15.247893341596143
ssS'PAI LOU L'
p271
(dp272
g3
F12.475641662555027
sg4
F0.03796297849889601
sg5
F14.954427587399978
sg6
F13.815511557963774
sg7
F16.985949258337204
sg8
F10.374990057905599
sg9
F16.547548603040585
sg10
F14.419530306085779
sg11
F0.18405548201274122
sg12
I00
sg13
F6.2864751982090095
sg14
F15.950122343939706
ssS'BAY FRANKLIN R'
p273
(dp274
g3
F12.387026600916823
sg4
F0.03796297849889601
sg5
F13.626402424365288
sg6
F12.899222326086996
sg7
F11.051128072271592
sg8
F11.768675596513079
sg9
F13.870898880445509
sg10
F4.248495242049359
sg11
F0.18405548201274122
sg12
I00
sg13
F6.2864751982090095
sg14
F11.889970522213316
ssS'HAYSLETT RODERICK J'
p275
(dp276
g3
F12.352742588236998
sg4
F0.01321253303133258
sg5
F13.500163702516804
sg6
F13.558945615643756
sg7
F12.756111290112168
sg8
F10.380339296476752
sg9
F13.870898880445509
sg10
F9.958508406881437
sg11
F0.03581526861451461
sg12
I00
sg13
F6.349138991379798
sg14
F12.756111290112168
ssS'FUGH JOHN L'
p277
(dp278
g3
F12.352742588236998
sg4
F0.03796297849889601
sg5
F10.831548740009199
sg6
F13.558945615643756
sg7
F12.08039036784905
sg8
F10.380339296476752
sg9
F12.08039036784905
sg10
F9.958508406881437
sg11
F0.18405548201274122
sg12
I00
sg13
F6.2864751982090095
sg14
F13.214425573300883
ssS'FALLON JAMES B'
p279
(dp280
g3
F12.626718605856114
sg4
F0.023931623931623933
sg5
F15.117428522029188
sg6
F14.731801689838349
sg7
F14.662408338330138
sg8
F11.471321915115153
sg9
F13.753909584671819
sg10
F12.902917979483526
sg11
F0.49333333333333335
sg12
I00
sg13
F7.380879035564116
sg14
F14.146354844485206
ssS'KOENIG MARK E'
p281
(dp282
g3
F12.644156594102743
sg4
F0.02232518955349621
sg5
F14.277621874683609
sg6
F13.458837042595952
sg7
F14.467864910245291
sg8
F11.752084087681121
sg9
F13.417623662529566
sg10
F11.921445900807399
sg11
F0.2459016393442623
sg12
I01
sg13
F7.7284157798410416
sg14
F14.037308404223461
ssS'SAVAGE FRANK'
p283
(dp284
g3
F12.352742588236998
sg4
F0.03796297849889601
sg5
F8.229777750081887
sg6
F13.558945615643756
sg7
F14.01101653337591
sg8
F10.380339296476752
sg9
F13.870898880445509
sg10
F9.958508406881437
sg11
F0.18405548201274122
sg12
I00
sg13
F6.2864751982090095
sg14
F13.214425573300883
ssS'IZZO LAWRENCE L'
p285
(dp286
g3
F11.353636607286846
sg4
F0.056451612903225805
sg5
F14.498403846601052
sg6
F13.558945615643756
sg7
F15.576807555097481
sg8
F10.243311309390855
sg9
F14.588010823847531
sg10
F14.256169049640544
sg11
F0.2631578947368421
sg12
I00
sg13
F6.082218910376446
sg14
F15.111554392618618
ssS'TILNEY ELIZABETH A'
p287
(dp288
g3
F12.418515144270167
sg4
F0.021739130434782608
sg5
F12.897703677317214
sg6
F12.611541086966115
sg7
F13.970840256761145
sg8
F10.380339296476752
sg9
F13.289995910118773
sg10
F11.932004153030674
sg11
F0.5789473684210527
sg12
I00
sg13
F5.940171252720432
sg14
F13.265238728956906
ssS'MARTIN AMANDA K'
p289
(dp290
g3
F12.764224505302602
sg4
F0.005256241787122208
sg5
F15.94457727223981
sg6
F13.558945615643756
sg7
F14.543207463423578
sg8
F9.013351778138825
sg9
F14.543207463423578
sg10
F14.851699420436981
sg11
F0.0
sg12
I00
sg13
F6.169610732491456
sg14
F13.214425573300883
ssS'BUY RICHARD B'
p291
(dp292
g3
F12.708504136937753
sg4
F0.04428044280442804
sg5
F14.6723497546867
sg6
F13.710151153416941
sg7
F15.052280894760901
sg8
F10.380339296476752
sg9
F14.748781899770936
sg10
F12.900651301040797
sg11
F0.06742640075973409
sg12
I00
sg13
F7.7553388128465
sg14
F13.711990569718472
ssS'GRAMM WENDY L'
p293
(dp294
g3
F12.352742588236998
sg4
F0.03796297849889601
sg5
F11.689337930756816
sg6
F13.558945615643756
sg7
F14.01101653337591
sg8
F10.380339296476752
sg9
F13.870898880445509
sg10
F9.958508406881437
sg11
F0.18405548201274122
sg12
I00
sg13
F6.2864751982090095
sg14
F13.214425573300883
ssS'CAUSEY RICHARD A'
p295
(dp296
g3
F12.936491525765353
sg4
F0.0306553911205074
sg5
F14.440785132163048
sg6
F13.815511557963774
sg7
F14.732626549218212
sg8
F10.331203269579111
sg9
F13.870898880445509
sg10
F12.637517342597286
sg11
F0.24489795918367346
sg12
I01
sg13
F7.368970402194793
sg14
F14.732626549218212
ssS'TAYLOR MITCHELL S'
p297
(dp298
g3
F12.4882960967803
sg4
F0.0
sg5
F13.904129309102316
sg6
F13.304686600863562
sg7
F15.13594525896001
sg8
F10.380339296476752
sg9
F14.972785073622767
sg10
F9.958508406881437
sg11
F0.0
sg12
I00
sg13
F5.707110264748875
sg14
F13.242453083981967
ssS'DONAHUE JR JEFFREY M'
p299
(dp300
g3
F12.537539519052972
sg4
F0.21734104046242775
sg5
F13.682848501643138
sg6
F13.592368256649284
sg7
F13.893386920806389
sg8
F11.474901635266106
sg9
F13.54883431024487
sg10
F6.79346613258001
sg11
F0.5
sg12
I00
sg13
F6.650279048587422
sg14
F12.66054694143939
ssS'GLISAN JR BEN F'
p301
(dp302
g3
F12.52443910011295
sg4
F0.05956471935853379
sg5
F14.056325054389045
sg6
F13.304686600863562
sg7
F13.565184640945082
sg8
F11.743870505376517
sg9
F12.860294469314848
sg10
F12.20761645324557
sg11
F0.375
sg12
I01
sg13
F6.774223886357614
sg14
F12.883646691864817
ss.