(lp0
S'poi'
p1
aS'bonus'
p2
aS'exercised_stock_options'
p3
aS'expenses'
p4
aS'other'
p5
aS'restricted_stock'
p6
aS'salary'
p7
aS'shared_receipt_with_poi'
p8
aS'total_payments'
p9
aS'total_stock_value'
p10
aS'from_ratio'
p11
aS'to_ratio'
p12
a.